Certificate:
    Data:
        Version: 3 (0x2)
        Serial Number: 9641679516320066980 (0x85ce206fb06aeda4)
    Signature Algorithm: sha1WithRSAEncryption
        Issuer: C=US, ST=CA, O=Apache, OU=Apache Pulsar, CN=localhost
        Validity
            Not Before: Jun 17 05:22:37 2021 GMT
            Not After : Jun 15 05:22:37 2031 GMT
        Subject: C=US, ST=CA, O=Apache, OU=Apache Pulsar, CN=localhost
        Subject Public Key Info:
            Public Key Algorithm: rsaEncryption
                Public-Key: (2048 bit)
                Modulus:
                    00:e4:d4:8e:b8:11:54:6d:26:f5:41:13:bc:ec:2f:
                    10:4d:da:7e:6f:b0:68:4b:cd:47:2c:9d:1e:22:d7:
                    60:e1:16:fe:87:8b:13:ae:9e:fc:83:dc:79:b8:25:
                    3b:18:21:d9:8e:49:34:c2:5d:68:fb:cd:44:18:6e:
                    51:97:8c:46:07:32:a1:dd:b1:9a:ac:9b:97:2e:b0:
                    98:e5:c8:aa:55:39:71:66:87:1b:5a:f7:bf:71:9b:
                    02:7f:ba:ed:16:90:a6:f9:ca:7c:40:59:ce:99:01:
                    fa:23:08:72:3d:63:df:f9:8f:77:bb:cf:e3:b8:11:
                    74:7a:b3:bb:88:79:ff:ab:ff:ac:7a:47:24:70:9d:
                    17:61:ac:1d:8e:29:12:56:6e:46:40:88:16:83:39:
                    db:3b:42:fa:18:6f:1d:4e:2e:2c:d5:92:e1:d8:3b:
                    83:e9:28:9f:5e:94:f2:41:de:c0:a6:d8:6c:08:74:
                    e6:c8:a0:b5:dc:e0:c0:eb:c5:6b:4f:b4:57:0a:f7:
                    81:6d:f6:9f:2e:37:6d:79:05:9f:12:3d:b5:b4:48:
                    69:7d:ef:b8:95:2e:38:c4:72:af:2d:c3:f5:8f:fd:
                    b4:ab:2a:c1:35:3e:5e:7f:26:2d:cc:a6:6e:3e:8a:
                    73:cf:3e:22:6c:da:18:d2:2c:40:64:e7:13:a5:fc:
                    e1:db
                Exponent: 65537 (0x10001)
        X509v3 extensions:
            X509v3 Basic Constraints: 
                CA:FALSE
            X509v3 Authority Key Identifier: 
                keyid:A7:A0:68:52:E9:8B:1D:F6:E4:40:DB:33:FE:44:B7:2B:17:E3:26:1A

            X509v3 Subject Key Identifier: 
                10:82:86:A6:80:1C:30:78:FE:D7:7A:E5:13:66:AD:79:4B:F2:DD:8C
            X509v3 Subject Alternative Name: 
                DNS:localhost
    Signature Algorithm: sha1WithRSAEncryption
         5c:24:09:ac:50:5e:0f:8d:9e:1f:28:0a:35:b2:07:7c:d4:28:
         ce:1c:34:9f:ba:14:e3:94:d7:e8:68:c8:ce:f5:f7:a6:a9:a9:
         76:ba:43:b0:45:cc:5b:af:42:99:b3:22:e4:da:39:54:41:ac:
         27:b5:2f:16:3b:5f:b4:3b:e7:e7:71:83:cc:39:40:48:71:c5:
         35:7a:a2:4f:37:29:bd:c8:ed:b6:e5:90:53:62:fb:9b:c3:e8:
         77:bb:17:91:14:58:2c:09:c3:49:28:80:cd:26:87:48:87:d8:
         f5:da:76:85:90:ca:a9:f0:8d:e2:b0:10:c1:d9:c1:a6:64:fe:
         0b:45:04:b8:c7:e0:74:16:bd:1e:61:59:6c:55:7c:af:b2:d4:
         77:b2:f9:24:c5:74:3f:74:68:08:b4:da:2a:29:bc:74:9a:cc:
         a3:d5:b5:c7:78:2d:f2:71:1e:06:95:05:f1:38:05:df:e0:b2:
         fe:6e:34:c3:19:7a:c1:2f:a2:b1:65:fb:1d:a2:73:cc:6d:01:
         99:9f:d5:3c:97:d0:93:76:57:0c:fc:ed:c4:13:96:f2:cf:6e:
         58:40:d9:9c:19:05:8e:95:70:a8:1e:97:6c:e3:db:50:2e:c9:
         f4:a3:e8:ff:8b:d0:43:42:ea:28:2a:f7:71:5a:81:4d:3f:3a:
         48:39:46:4f
-----BEGIN CERTIFICATE-----
MIIDlDCCAnygAwIBAgIJAIXOIG+wau2kMA0GCSqGSIb3DQEBBQUAMFcxCzAJBgNV
BAYTAlVTMQswCQYDVQQIDAJDQTEPMA0GA1UECgwGQXBhY2hlMRYwFAYDVQQLDA1B
cGFjaGUgUHVsc2FyMRIwEAYDVQQDDAlsb2NhbGhvc3QwHhcNMjEwNjE3MDUyMjM3
WhcNMzEwNjE1MDUyMjM3WjBXMQswCQYDVQQGEwJVUzELMAkGA1UECAwCQ0ExDzAN
BgNVBAoMBkFwYWNoZTEWMBQGA1UECwwNQXBhY2hlIFB1bHNhcjESMBAGA1UEAwwJ
bG9jYWxob3N0MIIBIjANBgkqhkiG9w0BAQEFAAOCAQ8AMIIBCgKCAQEA5NSOuBFU
bSb1QRO87C8QTdp+b7BoS81HLJ0eItdg4Rb+h4sTrp78g9x5uCU7GCHZjkk0wl1o
+81EGG5Rl4xGBzKh3bGarJuXLrCY5ciqVTlxZocbWve/cZsCf7rtFpCm+cp8QFnO
mQH6IwhyPWPf+Y93u8/juBF0erO7iHn/q/+sekckcJ0XYawdjikSVm5GQIgWgznb
O0L6GG8dTi4s1ZLh2DuD6SifXpTyQd7ApthsCHTmyKC13ODA68VrT7RXCveBbfaf
LjdteQWfEj21tEhpfe+4lS44xHKvLcP1j/20qyrBNT5efyYtzKZuPopzzz4ibNoY
0ixAZOcTpfzh2wIDAQABo2MwYTAJBgNVHRMEAjAAMB8GA1UdIwQYMBaAFKegaFLp
ix325EDbM/5EtysX4yYaMB0GA1UdDgQWBBQQgoamgBwweP7XeuUTZq15S/LdjDAU
BgNVHREEDTALgglsb2NhbGhvc3QwDQYJKoZIhvcNAQEFBQADggEBAFwkCaxQXg+N
nh8oCjWyB3zUKM4cNJ+6FOOU1+hoyM7196apqXa6Q7BFzFuvQpmzIuTaOVRBrCe1
LxY7X7Q75+dxg8w5QEhxxTV6ok83Kb3I7bblkFNi+5vD6He7F5EUWCwJw0kogM0m
h0iH2PXadoWQyqnwjeKwEMHZwaZk/gtFBLjH4HQWvR5hWWxVfK+y1Hey+STFdD90
aAi02iopvHSazKPVtcd4LfJxHgaVBfE4Bd/gsv5uNMMZesEvorFl+x2ic8xtAZmf
1TyX0JN2Vwz87cQTlvLPblhA2ZwZBY6VcKgel2zj21AuyfSj6P+L0ENC6igq93Fa
gU0/Okg5Rk8=
-----END CERTIFICATE-----
