Certificate:
    Data:
        Version: 3 (0x2)
        Serial Number: 9806047019225563732 (0x881613cf2fb7c254)
    Signature Algorithm: sha1WithRSAEncryption
        Issuer: C=US, ST=CA, O=Apache, OU=Apache Pulsar, CN=localhost
        Validity
            Not Before: Apr 13 08:01:48 2021 GMT
            Not After : Apr 11 08:01:48 2031 GMT
        Subject: C=US, ST=CA, O=Apache, OU=Apache Pulsar, CN=localhost
        Subject Public Key Info:
            Public Key Algorithm: rsaEncryption
                Public-Key: (2048 bit)
                Modulus:
                    00:a2:78:b9:3f:af:e2:d3:15:e4:9a:d1:54:27:93:
                    a2:6a:f1:db:e0:40:34:d5:72:96:b9:61:c7:c3:02:
                    22:5c:03:9d:d9:f6:5c:37:d6:9e:93:e4:64:37:69:
                    1b:56:e1:a8:58:09:17:3d:87:63:07:c3:c2:b5:33:
                    55:e6:b6:cf:c3:d9:5b:7a:8a:90:5e:19:35:2b:1f:
                    c1:38:ba:02:7f:49:4e:7f:49:9b:d3:e3:a3:a0:f1:
                    55:75:83:e5:75:ec:fb:f8:88:a9:b1:10:2b:14:00:
                    f8:f9:6c:13:be:9b:ca:64:b1:66:f4:ab:6e:b4:ca:
                    10:85:15:84:6c:f1:1a:29:06:15:e3:2e:3e:d5:83:
                    c5:8d:e9:b7:42:5c:16:e8:72:37:e8:bc:f0:57:59:
                    37:3b:14:ad:3d:12:0b:41:12:1b:54:1e:41:de:5f:
                    44:58:6b:25:e6:b9:6f:02:bd:f7:ed:43:44:2f:62:
                    66:9c:05:1e:99:f9:56:1e:c7:de:09:96:55:ea:dd:
                    a1:38:42:ae:d7:a1:88:b3:9e:21:ea:a1:7c:6d:76:
                    6a:d4:fd:d7:fd:ba:03:7a:90:46:66:29:4f:40:b6:
                    95:8b:c3:48:44:c5:00:1b:4c:5e:0c:c2:f5:7a:1f:
                    2f:35:38:da:37:b7:05:ce:f9:20:ec:f2:28:1b:8d:
                    60:ef
                Exponent: 65537 (0x10001)
        X509v3 extensions:
            X509v3 Basic Constraints: 
                CA:FALSE
            X509v3 Authority Key Identifier: 
                keyid:59:A0:A4:78:56:E1:56:61:4E:DC:E9:80:FF:EC:66:B6:2F:04:6D:AA

            X509v3 Subject Key Identifier: 
                9B:27:81:1A:7A:94:A7:C0:05:1C:6E:23:8D:80:B9:97:0D:46:95:F8
            X509v3 Subject Alternative Name: 
                DNS:localhost
    Signature Algorithm: sha1WithRSAEncryption
         11:a0:ed:8a:27:16:7b:80:f5:12:e5:0a:ed:e4:73:11:55:bf:
         4e:c5:b0:62:c7:0e:74:51:0a:31:34:e3:98:7e:68:32:79:75:
         52:0a:b3:9d:12:f7:47:bd:a4:48:dc:00:d5:46:c5:6f:9c:67:
         59:72:8b:fb:97:95:aa:88:e7:62:d2:3f:16:67:d9:c8:b5:8a:
         eb:b2:71:0d:e5:dd:fe:05:bc:8e:79:59:95:d2:e5:d9:16:94:
         e7:6f:44:8f:91:22:30:8e:bf:d3:9d:a4:7f:0e:84:77:d3:15:
         a0:ed:ed:da:ca:74:99:6d:3e:6a:a3:63:f3:cb:cc:f4:d4:1c:
         63:a7:5c:2c:4c:cb:8b:35:a7:f5:01:1b:df:8b:1c:e5:40:88:
         47:32:f5:f2:f7:9a:35:29:37:0a:7d:77:a0:3d:db:fb:53:95:
         af:74:f4:c0:bb:cb:e1:4a:9b:b4:29:32:21:31:50:fd:57:d0:
         e1:f2:81:98:8c:06:93:1d:da:c6:89:c2:54:44:5f:85:8b:a9:
         e8:23:7b:0a:dc:1e:ab:1a:73:3a:19:f1:89:ad:91:54:1d:c3:
         1a:e9:e1:aa:fa:d9:37:35:19:dd:6f:f1:d2:d8:9e:c2:3e:4c:
         86:26:38:d3:25:5e:03:f7:8e:96:a1:63:d0:a3:3b:a4:5e:ac:
         bc:45:90:f2
-----BEGIN CERTIFICATE-----
MIIDlDCCAnygAwIBAgIJAIgWE88vt8JUMA0GCSqGSIb3DQEBBQUAMFcxCzAJBgNV
BAYTAlVTMQswCQYDVQQIDAJDQTEPMA0GA1UECgwGQXBhY2hlMRYwFAYDVQQLDA1B
cGFjaGUgUHVsc2FyMRIwEAYDVQQDDAlsb2NhbGhvc3QwHhcNMjEwNDEzMDgwMTQ4
WhcNMzEwNDExMDgwMTQ4WjBXMQswCQYDVQQGEwJVUzELMAkGA1UECAwCQ0ExDzAN
BgNVBAoMBkFwYWNoZTEWMBQGA1UECwwNQXBhY2hlIFB1bHNhcjESMBAGA1UEAwwJ
bG9jYWxob3N0MIIBIjANBgkqhkiG9w0BAQEFAAOCAQ8AMIIBCgKCAQEAoni5P6/i
0xXkmtFUJ5OiavHb4EA01XKWuWHHwwIiXAOd2fZcN9aek+RkN2kbVuGoWAkXPYdj
B8PCtTNV5rbPw9lbeoqQXhk1Kx/BOLoCf0lOf0mb0+OjoPFVdYPldez7+IipsRAr
FAD4+WwTvpvKZLFm9KtutMoQhRWEbPEaKQYV4y4+1YPFjem3QlwW6HI36LzwV1k3
OxStPRILQRIbVB5B3l9EWGsl5rlvAr337UNEL2JmnAUemflWHsfeCZZV6t2hOEKu
16GIs54h6qF8bXZq1P3X/boDepBGZilPQLaVi8NIRMUAG0xeDML1eh8vNTjaN7cF
zvkg7PIoG41g7wIDAQABo2MwYTAJBgNVHRMEAjAAMB8GA1UdIwQYMBaAFFmgpHhW
4VZhTtzpgP/sZrYvBG2qMB0GA1UdDgQWBBSbJ4EaepSnwAUcbiONgLmXDUaV+DAU
BgNVHREEDTALgglsb2NhbGhvc3QwDQYJKoZIhvcNAQEFBQADggEBABGg7YonFnuA
9RLlCu3kcxFVv07FsGLHDnRRCjE045h+aDJ5dVIKs50S90e9pEjcANVGxW+cZ1ly
i/uXlaqI52LSPxZn2ci1iuuycQ3l3f4FvI55WZXS5dkWlOdvRI+RIjCOv9OdpH8O
hHfTFaDt7drKdJltPmqjY/PLzPTUHGOnXCxMy4s1p/UBG9+LHOVAiEcy9fL3mjUp
Nwp9d6A92/tTla909MC7y+FKm7QpMiExUP1X0OHygZiMBpMd2saJwlREX4WLqegj
ewrcHqsaczoZ8YmtkVQdwxrp4ar62Tc1Gd1v8dLYnsI+TIYmONMlXgP3jpahY9Cj
O6RerLxFkPI=
-----END CERTIFICATE-----
