Certificate:
    Data:
        Version: 3 (0x2)
        Serial Number: 11302484053501346331 (0x9cda7d5d1077021b)
    Signature Algorithm: sha1WithRSAEncryption
        Issuer: C=US, ST=CA, O=Apache, OU=Apache Pulsar, CN=localhost
        Validity
            Not Before: Feb 16 19:12:19 2021 GMT
            Not After : Feb 14 19:12:19 2031 GMT
        Subject: C=US, ST=CA, O=Apache, OU=Apache Pulsar, CN=localhost
        Subject Public Key Info:
            Public Key Algorithm: rsaEncryption
                Public-Key: (2048 bit)
                Modulus:
                    00:bb:c0:b5:9c:7a:6e:bd:9d:18:c0:34:13:cb:e4:
                    af:d7:ef:47:ee:78:2c:84:48:6c:35:8b:74:6a:58:
                    ab:dc:52:5c:b3:38:bf:dd:3d:dd:c1:0d:af:8d:9c:
                    53:db:1f:a5:53:f1:4a:05:63:b3:3a:97:1c:e1:5b:
                    c3:2d:11:09:6d:fc:58:29:36:c1:ad:2d:3a:35:39:
                    ab:52:81:89:6d:be:3a:25:4e:a2:29:aa:86:83:3e:
                    72:92:1f:1f:33:8a:0c:f4:28:de:62:16:25:0b:f5:
                    45:f7:a9:71:c2:30:ab:52:dc:07:d5:a4:5e:c9:46:
                    e8:03:0d:a7:57:74:a4:e5:ed:8a:c9:e2:0c:f1:e1:
                    10:4d:bb:7f:bc:84:c5:c1:13:22:3d:c9:d8:d0:55:
                    8a:bb:51:98:e5:11:36:8e:9b:da:1a:f2:0f:48:99:
                    49:24:38:94:fa:ab:ef:50:c5:13:a7:df:f6:17:8c:
                    a5:5e:31:87:ab:5a:27:c8:e9:fb:e7:db:94:92:ec:
                    4d:b6:2f:56:8e:73:b5:ff:57:f2:ed:f8:09:2d:f9:
                    e2:93:ed:8d:6a:18:54:3e:86:04:79:5a:7f:d1:db:
                    ae:47:b0:03:21:6b:57:f4:6b:84:a5:ba:41:84:09:
                    e2:4c:5c:bd:f8:42:c6:46:39:d1:64:8e:db:7c:41:
                    d9:b5
                Exponent: 65537 (0x10001)
        X509v3 extensions:
            X509v3 Basic Constraints: 
                CA:FALSE
            X509v3 Authority Key Identifier: 
                keyid:AE:7E:50:17:5D:13:6E:22:E5:C6:97:43:B9:8F:3A:B6:FA:FB:48:D2

            X509v3 Subject Key Identifier: 
                19:CF:49:FC:44:E7:14:CD:F8:D3:1F:F0:7F:1E:AB:BC:39:3B:4C:EE
    Signature Algorithm: sha1WithRSAEncryption
         de:68:16:95:78:37:bc:67:6f:a4:b2:ba:d4:9b:e8:d0:9c:d3:
         c3:88:25:1a:db:c1:ad:d1:a3:b9:a4:22:0a:34:ce:30:ea:cc:
         ca:95:b4:86:18:31:d7:be:45:62:cc:5e:97:8b:f8:01:3d:03:
         ac:1e:d0:67:7d:ad:c6:0d:39:ce:61:bf:0b:ab:6b:7d:8b:41:
         96:15:b4:d7:5d:9b:02:d2:15:9e:3d:03:84:f2:f5:41:f7:a8:
         f0:14:e1:22:d3:81:8b:d1:e6:b5:55:95:83:85:c8:41:73:d4:
         66:fb:4d:52:3b:5a:20:e0:1a:f2:44:08:b0:aa:31:8b:57:bf:
         b0:d5:51:3c:af:c7:0f:2f:27:23:fe:32:12:57:f4:7d:a0:74:
         a9:3b:05:fd:c2:12:90:33:e6:75:3b:56:66:4b:4b:b9:af:05:
         f7:84:0d:78:fb:1d:94:4b:bf:d8:bb:85:b7:0b:d2:64:27:05:
         1a:a3:81:00:31:76:83:7d:ed:e2:98:0b:02:e6:0e:c0:c8:42:
         d1:54:cf:a4:20:50:f1:99:47:b9:06:18:29:24:4f:64:a2:86:
         69:0c:61:59:53:77:86:0b:ec:ca:e6:5a:60:a9:72:6c:88:72:
         8e:b2:75:0a:a1:fa:1d:6e:cd:e9:ee:a2:05:c4:f4:4c:6b:42:
         e2:c4:6d:a2
-----BEGIN CERTIFICATE-----
MIIDfjCCAmagAwIBAgIJAJzafV0QdwIbMA0GCSqGSIb3DQEBBQUAMFcxCzAJBgNV
BAYTAlVTMQswCQYDVQQIDAJDQTEPMA0GA1UECgwGQXBhY2hlMRYwFAYDVQQLDA1B
cGFjaGUgUHVsc2FyMRIwEAYDVQQDDAlsb2NhbGhvc3QwHhcNMjEwMjE2MTkxMjE5
WhcNMzEwMjE0MTkxMjE5WjBXMQswCQYDVQQGEwJVUzELMAkGA1UECAwCQ0ExDzAN
BgNVBAoMBkFwYWNoZTEWMBQGA1UECwwNQXBhY2hlIFB1bHNhcjESMBAGA1UEAwwJ
bG9jYWxob3N0MIIBIjANBgkqhkiG9w0BAQEFAAOCAQ8AMIIBCgKCAQEAu8C1nHpu
vZ0YwDQTy+Sv1+9H7ngshEhsNYt0alir3FJcszi/3T3dwQ2vjZxT2x+lU/FKBWOz
Opcc4VvDLREJbfxYKTbBrS06NTmrUoGJbb46JU6iKaqGgz5ykh8fM4oM9CjeYhYl
C/VF96lxwjCrUtwH1aReyUboAw2nV3Sk5e2KyeIM8eEQTbt/vITFwRMiPcnY0FWK
u1GY5RE2jpvaGvIPSJlJJDiU+qvvUMUTp9/2F4ylXjGHq1onyOn759uUkuxNti9W
jnO1/1fy7fgJLfnik+2NahhUPoYEeVp/0duuR7ADIWtX9GuEpbpBhAniTFy9+ELG
RjnRZI7bfEHZtQIDAQABo00wSzAJBgNVHRMEAjAAMB8GA1UdIwQYMBaAFK5+UBdd
E24i5caXQ7mPOrb6+0jSMB0GA1UdDgQWBBQZz0n8ROcUzfjTH/B/Hqu8OTtM7jAN
BgkqhkiG9w0BAQUFAAOCAQEA3mgWlXg3vGdvpLK61Jvo0JzTw4glGtvBrdGjuaQi
CjTOMOrMypW0hhgx175FYsxel4v4AT0DrB7QZ32txg05zmG/C6trfYtBlhW0112b
AtIVnj0DhPL1Qfeo8BThItOBi9HmtVWVg4XIQXPUZvtNUjtaIOAa8kQIsKoxi1e/
sNVRPK/HDy8nI/4yElf0faB0qTsF/cISkDPmdTtWZktLua8F94QNePsdlEu/2LuF
twvSZCcFGqOBADF2g33t4pgLAuYOwMhC0VTPpCBQ8ZlHuQYYKSRPZKKGaQxhWVN3
hgvsyuZaYKlybIhyjrJ1CqH6HW7N6e6iBcT0TGtC4sRtog==
-----END CERTIFICATE-----
