Certificate:
    Data:
        Version: 3 (0x2)
        Serial Number: 15605511759691510625 (0xd891ea438e97f361)
    Signature Algorithm: sha256WithRSAEncryption
        Issuer: C=US, ST=CA, O=Apache, OU=Apache Pulsar, CN=localhost
        Validity
            Not Before: Feb 16 19:12:19 2021 GMT
            Not After : Feb 16 19:12:19 2024 GMT
        Subject: C=US, ST=CA, O=Apache, OU=Apache Pulsar, CN=localhost
        Subject Public Key Info:
            Public Key Algorithm: rsaEncryption
                Public-Key: (2048 bit)
                Modulus:
                    00:e3:31:32:9c:cc:a4:1d:2e:39:ed:7c:ee:14:3b:
                    29:71:e0:90:56:f0:ca:00:86:66:4b:32:1e:e3:a5:
                    3e:e6:bc:0c:98:ea:ff:0c:da:3e:00:7a:82:f5:a4:
                    59:1c:f2:4c:35:2d:52:83:d6:f8:6d:33:2c:f7:ec:
                    48:30:da:13:dd:a9:8f:98:88:21:80:ee:45:b5:44:
                    73:62:69:2b:c4:47:1c:fb:9e:8f:0b:01:b7:94:28:
                    62:f1:44:b3:64:44:fc:02:62:61:26:05:7a:26:45:
                    4a:6f:6d:27:13:e4:07:6c:7c:01:d3:1e:ab:53:92:
                    dc:2d:d0:bf:ce:eb:eb:52:cf:ed:e3:2a:c7:fd:dc:
                    72:8b:09:6e:3f:23:1a:b8:ee:cc:bb:7f:be:02:16:
                    8b:e0:e7:d3:10:88:54:68:01:64:c4:06:0a:c7:40:
                    a0:65:f9:66:25:9b:8d:a2:37:e2:12:5d:fa:94:f4:
                    27:98:b4:48:95:ef:f0:9c:88:32:9c:a9:7e:6e:8f:
                    83:d6:d9:44:b4:8a:d1:68:cf:ad:aa:e7:64:b8:04:
                    2f:02:1d:c0:85:77:b8:39:da:e7:21:28:4a:67:7c:
                    56:f4:ae:62:e0:9f:74:dc:f4:b5:08:1f:99:50:73:
                    08:55:90:01:0d:15:dc:ab:a3:cb:75:8c:73:7a:43:
                    34:0f
                Exponent: 65537 (0x10001)
        X509v3 extensions:
            X509v3 Basic Constraints: 
                CA:TRUE
            X509v3 Authority Key Identifier: 
                DirName:/C=US/ST=CA/O=Apache/OU=Apache Pulsar/CN=localhost
                serial:D8:91:EA:43:8E:97:F3:61

            X509v3 Subject Key Identifier: 
                AE:7E:50:17:5D:13:6E:22:E5:C6:97:43:B9:8F:3A:B6:FA:FB:48:D2
    Signature Algorithm: sha256WithRSAEncryption
         bd:b5:15:07:c1:be:04:dd:3a:09:5d:16:14:ff:67:ad:df:c3:
         23:f0:92:1c:ce:35:c7:9d:38:91:bb:00:d3:51:6a:65:32:0e:
         c9:5b:a7:cd:eb:51:ff:79:22:09:9b:f1:b3:a2:ae:b6:47:59:
         5e:ef:2a:7a:47:a7:ca:06:9d:ba:e5:af:b1:06:28:25:91:92:
         c0:0c:ab:22:22:cb:e5:38:7e:5e:f1:8b:b0:82:29:1a:36:db:
         95:bc:0e:17:f7:9d:7d:9f:ac:52:b9:c3:64:a2:8f:a6:a4:f4:
         a5:27:97:87:66:62:44:6c:f3:3a:63:aa:5e:ea:ae:58:74:d5:
         c3:9c:a0:0c:d0:a3:fe:00:c6:7c:21:bd:ed:a5:8f:a6:ee:89:
         77:e1:b0:4a:81:97:61:f9:59:df:50:b1:05:73:15:f5:cf:8e:
         31:ad:4e:e5:00:60:ba:75:5c:92:71:68:bb:ca:04:f5:33:34:
         a0:49:98:d0:17:cb:e4:49:09:6c:f3:7a:88:ad:f6:fd:f1:ed:
         8d:ee:0f:45:bd:37:6c:26:0a:ab:b3:bd:c8:f3:cd:83:be:f4:
         f2:94:6e:ca:d1:89:e0:f7:df:67:ec:6a:ee:2e:8d:40:33:45:
         9f:f2:6a:8f:61:26:a6:02:4a:92:0f:0f:65:1b:6e:a6:35:9a:
         04:ee:ba:e4
-----BEGIN CERTIFICATE-----
MIID1TCCAr2gAwIBAgIJANiR6kOOl/NhMA0GCSqGSIb3DQEBCwUAMFcxCzAJBgNV
BAYTAlVTMQswCQYDVQQIDAJDQTEPMA0GA1UECgwGQXBhY2hlMRYwFAYDVQQLDA1B
cGFjaGUgUHVsc2FyMRIwEAYDVQQDDAlsb2NhbGhvc3QwHhcNMjEwMjE2MTkxMjE5
WhcNMjQwMjE2MTkxMjE5WjBXMQswCQYDVQQGEwJVUzELMAkGA1UECAwCQ0ExDzAN
BgNVBAoMBkFwYWNoZTEWMBQGA1UECwwNQXBhY2hlIFB1bHNhcjESMBAGA1UEAwwJ
bG9jYWxob3N0MIIBIjANBgkqhkiG9w0BAQEFAAOCAQ8AMIIBCgKCAQEA4zEynMyk
HS457XzuFDspceCQVvDKAIZmSzIe46U+5rwMmOr/DNo+AHqC9aRZHPJMNS1Sg9b4
bTMs9+xIMNoT3amPmIghgO5FtURzYmkrxEcc+56PCwG3lChi8USzZET8AmJhJgV6
JkVKb20nE+QHbHwB0x6rU5LcLdC/zuvrUs/t4yrH/dxyiwluPyMauO7Mu3++AhaL
4OfTEIhUaAFkxAYKx0CgZflmJZuNojfiEl36lPQnmLRIle/wnIgynKl+bo+D1tlE
tIrRaM+tqudkuAQvAh3AhXe4OdrnIShKZ3xW9K5i4J903PS1CB+ZUHMIVZABDRXc
q6PLdYxzekM0DwIDAQABo4GjMIGgMAwGA1UdEwQFMAMBAf8wcQYDVR0jBGowaKFb
pFkwVzELMAkGA1UEBhMCVVMxCzAJBgNVBAgMAkNBMQ8wDQYDVQQKDAZBcGFjaGUx
FjAUBgNVBAsMDUFwYWNoZSBQdWxzYXIxEjAQBgNVBAMMCWxvY2FsaG9zdIIJANiR
6kOOl/NhMB0GA1UdDgQWBBSuflAXXRNuIuXGl0O5jzq2+vtI0jANBgkqhkiG9w0B
AQsFAAOCAQEAvbUVB8G+BN06CV0WFP9nrd/DI/CSHM41x504kbsA01FqZTIOyVun
zetR/3kiCZvxs6KutkdZXu8qekenygaduuWvsQYoJZGSwAyrIiLL5Th+XvGLsIIp
GjbblbwOF/edfZ+sUrnDZKKPpqT0pSeXh2ZiRGzzOmOqXuquWHTVw5ygDNCj/gDG
fCG97aWPpu6Jd+GwSoGXYflZ31CxBXMV9c+OMa1O5QBgunVcknFou8oE9TM0oEmY
0BfL5EkJbPN6iK32/fHtje4PRb03bCYKq7O9yPPNg7708pRuytGJ4PffZ+xq7i6N
QDNFn/Jqj2EmpgJKkg8PZRtupjWaBO665A==
-----END CERTIFICATE-----
