Certificate:
    Data:
        Version: 3 (0x2)
        Serial Number: 13600640347532464819 (0xbcbf2e56388492b3)
    Signature Algorithm: sha256WithRSAEncryption
        Issuer: C=US, ST=CA, O=Apache, OU=Apache Pulsar, CN=localhost
        Validity
            Not Before: Jun 17 05:22:37 2021 GMT
            Not After : Jun 16 05:22:37 2024 GMT
        Subject: C=US, ST=CA, O=Apache, OU=Apache Pulsar, CN=localhost
        Subject Public Key Info:
            Public Key Algorithm: rsaEncryption
                Public-Key: (2048 bit)
                Modulus:
                    00:a6:73:4e:8a:1a:24:3c:61:cb:f1:ec:91:24:ba:
                    3f:16:f0:bf:e0:08:83:89:b1:f8:c3:a9:99:40:43:
                    d2:ed:2d:3c:bd:39:68:da:74:43:29:50:aa:89:81:
                    fd:8f:2b:f1:53:05:4e:d3:91:d1:67:f9:94:45:87:
                    f4:67:7a:be:61:53:2d:83:f6:c5:31:56:05:82:3f:
                    27:34:b0:1a:27:d3:85:25:76:b1:10:0f:13:df:a2:
                    f3:93:13:30:c9:19:59:fc:db:43:aa:37:79:39:09:
                    e5:70:77:b0:81:6d:d7:c7:78:a9:8d:d7:2a:7a:1b:
                    40:96:cd:4b:8a:b6:ca:79:67:00:aa:c3:35:f4:7b:
                    e7:63:45:34:ec:e3:5a:69:f1:e7:12:20:e7:4c:d4:
                    53:75:ee:3a:7a:26:dc:a9:bd:24:fe:e1:c7:87:e8:
                    2b:08:7f:9a:15:78:8d:8a:d8:c5:53:c1:e6:f7:73:
                    4f:f4:38:36:c5:70:ff:21:a9:7b:1d:c9:64:b1:c3:
                    d8:2f:47:c6:67:2d:92:08:24:f3:9c:34:e1:91:c4:
                    da:65:f4:4b:28:4a:57:1f:8a:c2:8f:ab:d8:99:74:
                    49:01:9f:c0:9c:0e:99:e9:1c:39:59:d9:8a:53:97:
                    64:be:98:f3:fa:d0:78:39:fa:cc:37:53:07:dd:2c:
                    d0:63
                Exponent: 65537 (0x10001)
        X509v3 extensions:
            X509v3 Basic Constraints: 
                CA:TRUE
            X509v3 Authority Key Identifier: 
                DirName:/C=US/ST=CA/O=Apache/OU=Apache Pulsar/CN=localhost
                serial:BC:BF:2E:56:38:84:92:B3

            X509v3 Subject Key Identifier: 
                A7:A0:68:52:E9:8B:1D:F6:E4:40:DB:33:FE:44:B7:2B:17:E3:26:1A
            X509v3 Subject Alternative Name: 
                DNS:localhost
    Signature Algorithm: sha256WithRSAEncryption
         1e:f6:3c:c7:c6:e6:d1:b4:eb:f6:12:44:ca:26:a8:df:45:37:
         f7:03:d9:8c:02:2f:26:ef:46:8e:d5:34:83:8e:2b:9e:48:96:
         d1:19:51:0b:60:43:1c:17:02:6d:ae:80:c9:34:a2:c4:de:ed:
         fb:f6:eb:0a:4d:31:3b:02:67:c9:d7:b9:6b:f0:53:74:71:10:
         b1:e6:74:55:6b:c4:a1:e8:65:8d:3a:cb:3c:c0:11:82:55:0c:
         22:43:11:ed:dc:e1:4f:8f:ef:f1:87:b1:3b:04:26:46:55:d8:
         c4:bf:c5:a6:e5:d5:6f:ee:8b:77:31:cc:85:b8:58:0c:00:b8:
         f2:2d:7a:11:80:65:bf:7c:47:34:50:48:0d:55:45:4f:c9:28:
         44:11:4c:aa:de:07:00:b2:75:60:95:36:7e:6a:c2:58:8d:97:
         f0:e6:a5:b1:45:95:b4:c2:ef:2c:d8:6a:9d:41:a8:77:ab:3a:
         60:d9:b1:ef:c1:62:6b:4b:15:f5:c7:7d:df:d6:95:de:26:b5:
         51:6c:a5:a3:7f:fa:c0:13:32:f0:a2:72:e9:b1:cc:2d:86:30:
         a8:fe:08:9a:31:94:81:16:39:1c:74:45:2b:59:7e:04:50:14:
         d2:d5:e8:b2:20:44:6b:51:02:a5:28:a9:e1:7a:54:73:a4:b5:
         0f:e9:ee:82
-----BEGIN CERTIFICATE-----
MIID6zCCAtOgAwIBAgIJALy/LlY4hJKzMA0GCSqGSIb3DQEBCwUAMFcxCzAJBgNV
BAYTAlVTMQswCQYDVQQIDAJDQTEPMA0GA1UECgwGQXBhY2hlMRYwFAYDVQQLDA1B
cGFjaGUgUHVsc2FyMRIwEAYDVQQDDAlsb2NhbGhvc3QwHhcNMjEwNjE3MDUyMjM3
WhcNMjQwNjE2MDUyMjM3WjBXMQswCQYDVQQGEwJVUzELMAkGA1UECAwCQ0ExDzAN
BgNVBAoMBkFwYWNoZTEWMBQGA1UECwwNQXBhY2hlIFB1bHNhcjESMBAGA1UEAwwJ
bG9jYWxob3N0MIIBIjANBgkqhkiG9w0BAQEFAAOCAQ8AMIIBCgKCAQEApnNOihok
PGHL8eyRJLo/FvC/4AiDibH4w6mZQEPS7S08vTlo2nRDKVCqiYH9jyvxUwVO05HR
Z/mURYf0Z3q+YVMtg/bFMVYFgj8nNLAaJ9OFJXaxEA8T36LzkxMwyRlZ/NtDqjd5
OQnlcHewgW3Xx3ipjdcqehtAls1LirbKeWcAqsM19HvnY0U07ONaafHnEiDnTNRT
de46eibcqb0k/uHHh+grCH+aFXiNitjFU8Hm93NP9Dg2xXD/Ial7HclkscPYL0fG
Zy2SCCTznDThkcTaZfRLKEpXH4rCj6vYmXRJAZ/AnA6Z6Rw5WdmKU5dkvpjz+tB4
OfrMN1MH3SzQYwIDAQABo4G5MIG2MAwGA1UdEwQFMAMBAf8wcQYDVR0jBGowaKFb
pFkwVzELMAkGA1UEBhMCVVMxCzAJBgNVBAgMAkNBMQ8wDQYDVQQKDAZBcGFjaGUx
FjAUBgNVBAsMDUFwYWNoZSBQdWxzYXIxEjAQBgNVBAMMCWxvY2FsaG9zdIIJALy/
LlY4hJKzMB0GA1UdDgQWBBSnoGhS6Ysd9uRA2zP+RLcrF+MmGjAUBgNVHREEDTAL
gglsb2NhbGhvc3QwDQYJKoZIhvcNAQELBQADggEBAB72PMfG5tG06/YSRMomqN9F
N/cD2YwCLybvRo7VNIOOK55IltEZUQtgQxwXAm2ugMk0osTe7fv26wpNMTsCZ8nX
uWvwU3RxELHmdFVrxKHoZY06yzzAEYJVDCJDEe3c4U+P7/GHsTsEJkZV2MS/xabl
1W/ui3cxzIW4WAwAuPItehGAZb98RzRQSA1VRU/JKEQRTKreBwCydWCVNn5qwliN
l/DmpbFFlbTC7yzYap1BqHerOmDZse/BYmtLFfXHfd/Wld4mtVFspaN/+sATMvCi
cumxzC2GMKj+CJoxlIEWORx0RStZfgRQFNLV6LIgRGtRAqUoqeF6VHOktQ/p7oI=
-----END CERTIFICATE-----
