Certificate:
    Data:
        Version: 3 (0x2)
        Serial Number: 12259044356400093384 (0xaa20dfe414fc18c8)
    Signature Algorithm: sha256WithRSAEncryption
        Issuer: C=US, ST=CA, O=Apache, OU=Apache Pulsar, CN=localhost
        Validity
            Not Before: Apr 13 08:01:48 2021 GMT
            Not After : Apr 12 08:01:48 2024 GMT
        Subject: C=US, ST=CA, O=Apache, OU=Apache Pulsar, CN=localhost
        Subject Public Key Info:
            Public Key Algorithm: rsaEncryption
                Public-Key: (2048 bit)
                Modulus:
                    00:c6:d2:63:e1:12:01:3d:7f:6f:4a:50:fb:25:f4:
                    eb:2e:73:e7:a8:4e:cc:0a:8d:a4:cb:30:b7:89:7a:
                    69:14:c4:0c:94:a1:4a:b8:39:24:1b:fc:1c:b6:c6:
                    39:2a:94:26:69:a7:d4:13:59:e8:35:b5:34:d9:a4:
                    36:b6:03:c4:ad:4f:a4:78:94:3c:6b:94:99:70:b5:
                    4f:6c:ee:5b:ca:ce:15:2d:ab:38:04:8f:52:0d:48:
                    d5:ce:74:08:00:f2:69:ae:59:08:b6:75:3d:13:c9:
                    33:32:dc:47:de:fd:1e:bb:c7:50:a1:b1:ca:84:43:
                    c4:7d:d9:fd:85:dc:93:d1:b3:59:58:e2:85:c6:25:
                    d2:bf:3a:7c:6f:8a:04:ae:c8:45:be:74:d7:80:d2:
                    b7:03:3c:11:71:92:9e:e3:f8:37:a1:94:11:12:ee:
                    2c:88:5a:f8:55:27:1d:fd:6f:22:41:33:9f:e0:d5:
                    e5:13:30:64:1f:63:a6:1c:f2:7f:e1:1c:e5:a8:3a:
                    63:45:7b:1b:5c:4e:6a:1b:c9:0e:23:ae:08:3c:b7:
                    17:d4:07:3c:0f:89:54:4b:58:f2:36:d7:53:10:9a:
                    d2:5f:d9:82:ac:fd:6e:80:6b:30:4c:96:bd:39:bd:
                    9f:28:49:31:1d:08:23:5c:18:a0:c3:ce:25:f3:49:
                    0c:0d
                Exponent: 65537 (0x10001)
        X509v3 extensions:
            X509v3 Basic Constraints: 
                CA:TRUE
            X509v3 Authority Key Identifier: 
                DirName:/C=US/ST=CA/O=Apache/OU=Apache Pulsar/CN=localhost
                serial:AA:20:DF:E4:14:FC:18:C8

            X509v3 Subject Key Identifier: 
                59:A0:A4:78:56:E1:56:61:4E:DC:E9:80:FF:EC:66:B6:2F:04:6D:AA
            X509v3 Subject Alternative Name: 
                DNS:localhost
    Signature Algorithm: sha256WithRSAEncryption
         1d:d1:d0:86:49:a8:ca:a7:ec:13:5d:0c:60:9a:36:ba:55:17:
         04:2a:4b:29:4b:7e:11:68:e1:a9:f5:53:72:a1:04:1e:ee:63:
         36:2c:0a:fd:4f:e0:c3:64:e2:b4:d3:03:76:80:83:4e:88:3f:
         f1:18:25:62:e1:82:cf:37:ca:31:95:48:db:a0:58:9f:ae:54:
         7b:ea:fa:5f:f1:b5:fa:8e:29:b9:d6:7e:de:ee:78:82:f3:bf:
         20:37:f2:dc:f2:88:46:ae:16:59:a4:7e:67:50:a4:4d:91:bc:
         39:c2:65:0e:a6:97:5e:ed:18:2e:45:99:67:d3:66:21:93:28:
         ba:7d:19:a9:47:88:74:2b:ef:27:5d:32:41:ab:96:c5:cc:12:
         07:ec:f9:72:9c:a9:e5:3e:88:40:f6:11:82:b3:0b:6a:86:95:
         db:f5:32:a9:e9:9f:fd:1d:67:53:27:08:19:d3:8e:77:2f:74:
         42:0b:e9:31:13:20:1e:75:5c:c3:24:1f:68:60:a8:90:bc:22:
         28:3a:92:35:e6:1d:f0:e6:fb:11:23:13:50:bc:fd:46:42:90:
         d1:00:9c:a6:1b:d8:d6:58:e7:a6:9a:a9:4e:5b:93:37:e2:9b:
         fa:fb:89:a6:d6:13:f8:a0:fb:84:b2:5f:74:30:7b:5e:51:5d:
         e9:4e:74:17
-----BEGIN CERTIFICATE-----
MIID6zCCAtOgAwIBAgIJAKog3+QU/BjIMA0GCSqGSIb3DQEBCwUAMFcxCzAJBgNV
BAYTAlVTMQswCQYDVQQIDAJDQTEPMA0GA1UECgwGQXBhY2hlMRYwFAYDVQQLDA1B
cGFjaGUgUHVsc2FyMRIwEAYDVQQDDAlsb2NhbGhvc3QwHhcNMjEwNDEzMDgwMTQ4
WhcNMjQwNDEyMDgwMTQ4WjBXMQswCQYDVQQGEwJVUzELMAkGA1UECAwCQ0ExDzAN
BgNVBAoMBkFwYWNoZTEWMBQGA1UECwwNQXBhY2hlIFB1bHNhcjESMBAGA1UEAwwJ
bG9jYWxob3N0MIIBIjANBgkqhkiG9w0BAQEFAAOCAQ8AMIIBCgKCAQEAxtJj4RIB
PX9vSlD7JfTrLnPnqE7MCo2kyzC3iXppFMQMlKFKuDkkG/wctsY5KpQmaafUE1no
NbU02aQ2tgPErU+keJQ8a5SZcLVPbO5bys4VLas4BI9SDUjVznQIAPJprlkItnU9
E8kzMtxH3v0eu8dQobHKhEPEfdn9hdyT0bNZWOKFxiXSvzp8b4oErshFvnTXgNK3
AzwRcZKe4/g3oZQREu4siFr4VScd/W8iQTOf4NXlEzBkH2OmHPJ/4RzlqDpjRXsb
XE5qG8kOI64IPLcX1Ac8D4lUS1jyNtdTEJrSX9mCrP1ugGswTJa9Ob2fKEkxHQgj
XBigw84l80kMDQIDAQABo4G5MIG2MAwGA1UdEwQFMAMBAf8wcQYDVR0jBGowaKFb
pFkwVzELMAkGA1UEBhMCVVMxCzAJBgNVBAgMAkNBMQ8wDQYDVQQKDAZBcGFjaGUx
FjAUBgNVBAsMDUFwYWNoZSBQdWxzYXIxEjAQBgNVBAMMCWxvY2FsaG9zdIIJAKog
3+QU/BjIMB0GA1UdDgQWBBRZoKR4VuFWYU7c6YD/7Ga2LwRtqjAUBgNVHREEDTAL
gglsb2NhbGhvc3QwDQYJKoZIhvcNAQELBQADggEBAB3R0IZJqMqn7BNdDGCaNrpV
FwQqSylLfhFo4an1U3KhBB7uYzYsCv1P4MNk4rTTA3aAg06IP/EYJWLhgs83yjGV
SNugWJ+uVHvq+l/xtfqOKbnWft7ueILzvyA38tzyiEauFlmkfmdQpE2RvDnCZQ6m
l17tGC5FmWfTZiGTKLp9GalHiHQr7yddMkGrlsXMEgfs+XKcqeU+iED2EYKzC2qG
ldv1Mqnpn/0dZ1MnCBnTjncvdEIL6TETIB51XMMkH2hgqJC8Iig6kjXmHfDm+xEj
E1C8/UZCkNEAnKYb2NZY56aaqU5bkzfim/r7iabWE/ig+4SyX3Qwe15RXelOdBc=
-----END CERTIFICATE-----
