Certificate:
    Data:
        Version: 3 (0x2)
        Serial Number: 9806047019225563731 (0x881613cf2fb7c253)
    Signature Algorithm: sha1WithRSAEncryption
        Issuer: C=US, ST=CA, O=Apache, OU=Apache Pulsar, CN=localhost
        Validity
            Not Before: Apr 13 08:01:48 2021 GMT
            Not After : Apr 11 08:01:48 2031 GMT
        Subject: C=US, ST=CA, O=Apache, OU=Apache Pulsar, CN=localhost
        Subject Public Key Info:
            Public Key Algorithm: rsaEncryption
                Public-Key: (2048 bit)
                Modulus:
                    00:a8:90:05:5f:14:7a:de:41:98:14:82:fe:f2:c3:
                    4a:81:1b:47:91:36:83:5e:9d:b2:78:7b:26:50:1c:
                    b9:45:8f:de:b5:61:2e:3a:6d:86:e3:e4:64:2b:13:
                    4b:52:34:89:20:2d:0b:40:b8:76:aa:4f:cc:b5:dc:
                    4d:c7:dc:11:32:e9:84:7f:51:b0:ae:1d:c8:70:7e:
                    16:e4:cf:da:c3:56:4a:c8:9f:93:4a:7f:fb:fd:32:
                    20:0a:bd:78:3a:b5:65:cf:fb:12:a2:ca:c2:71:a0:
                    ac:9d:c2:7b:94:b3:b8:18:c0:2b:f4:ab:ce:72:d4:
                    7a:00:3f:b3:4a:be:97:ea:7c:8c:8e:7a:50:58:22:
                    0c:00:3a:26:8c:47:8e:64:dd:b5:86:8f:c9:bf:61:
                    48:00:55:81:7e:f4:5b:12:54:00:b2:7e:15:c0:b7:
                    76:0c:88:9a:7a:89:8b:2b:be:f8:04:af:71:5a:43:
                    ca:e3:9e:d1:71:ff:10:65:69:db:c3:c7:58:cb:ac:
                    b2:34:34:be:ef:26:67:de:48:71:3d:ba:a4:6e:6e:
                    fa:27:8b:97:37:ab:e2:f7:d1:ee:3f:58:e0:65:f5:
                    04:d8:05:ac:49:a5:c0:88:6b:91:5f:c8:79:aa:28:
                    c9:36:e2:12:b0:c1:71:16:c2:38:b0:6f:b8:6f:f8:
                    fa:d9
                Exponent: 65537 (0x10001)
        X509v3 extensions:
            X509v3 Basic Constraints: 
                CA:FALSE
            X509v3 Authority Key Identifier: 
                keyid:59:A0:A4:78:56:E1:56:61:4E:DC:E9:80:FF:EC:66:B6:2F:04:6D:AA

            X509v3 Subject Key Identifier: 
                E0:D9:A8:7D:49:EC:BF:DF:1D:88:45:9B:D7:E5:BE:5A:90:C6:98:59
            X509v3 Subject Alternative Name: 
                DNS:localhost
    Signature Algorithm: sha1WithRSAEncryption
         73:02:b5:ce:ba:8d:2c:34:1b:04:1d:40:00:1f:71:01:aa:b5:
         2f:db:b3:31:35:a0:74:f2:ca:24:e5:df:18:f2:85:a3:be:cc:
         62:4d:67:b5:ff:db:4e:33:38:4b:58:69:34:8b:cc:91:22:a4:
         aa:cf:c1:fe:61:46:c6:f7:f3:cf:65:b4:d3:47:b8:07:be:bb:
         dc:8d:ad:c4:c9:cb:23:6b:64:14:78:1e:16:a5:af:ca:28:d4:
         8c:b5:ec:31:76:74:41:91:a0:50:6b:66:99:8d:d5:a6:3a:4e:
         7b:5b:00:74:85:22:e7:6f:82:d8:ba:42:0f:71:44:3c:48:27:
         a9:d5:af:86:e7:4e:a3:11:83:92:12:a5:da:46:d1:9b:c3:a8:
         70:f7:18:cb:1a:91:55:6c:04:bb:4b:7c:b3:49:89:71:39:cd:
         e0:f4:41:58:bb:db:66:97:4a:c2:2f:ca:65:b6:e5:d2:dc:00:
         9f:7e:35:68:ef:08:40:c8:f1:a8:45:f3:5e:4b:93:9d:ee:82:
         19:3a:27:a8:a1:32:95:89:0c:a9:00:ee:ae:a9:02:69:f3:0b:
         1f:42:3a:ed:67:64:f4:88:fe:03:7e:93:90:f3:a3:d2:45:73:
         77:8d:2a:42:65:b9:d7:a7:29:9a:df:da:23:c9:2a:c4:f9:8f:
         a4:66:13:72
-----BEGIN CERTIFICATE-----
MIIDlDCCAnygAwIBAgIJAIgWE88vt8JTMA0GCSqGSIb3DQEBBQUAMFcxCzAJBgNV
BAYTAlVTMQswCQYDVQQIDAJDQTEPMA0GA1UECgwGQXBhY2hlMRYwFAYDVQQLDA1B
cGFjaGUgUHVsc2FyMRIwEAYDVQQDDAlsb2NhbGhvc3QwHhcNMjEwNDEzMDgwMTQ4
WhcNMzEwNDExMDgwMTQ4WjBXMQswCQYDVQQGEwJVUzELMAkGA1UECAwCQ0ExDzAN
BgNVBAoMBkFwYWNoZTEWMBQGA1UECwwNQXBhY2hlIFB1bHNhcjESMBAGA1UEAwwJ
bG9jYWxob3N0MIIBIjANBgkqhkiG9w0BAQEFAAOCAQ8AMIIBCgKCAQEAqJAFXxR6
3kGYFIL+8sNKgRtHkTaDXp2yeHsmUBy5RY/etWEuOm2G4+RkKxNLUjSJIC0LQLh2
qk/MtdxNx9wRMumEf1Gwrh3IcH4W5M/aw1ZKyJ+TSn/7/TIgCr14OrVlz/sSosrC
caCsncJ7lLO4GMAr9KvOctR6AD+zSr6X6nyMjnpQWCIMADomjEeOZN21ho/Jv2FI
AFWBfvRbElQAsn4VwLd2DIiaeomLK774BK9xWkPK457Rcf8QZWnbw8dYy6yyNDS+
7yZn3khxPbqkbm76J4uXN6vi99HuP1jgZfUE2AWsSaXAiGuRX8h5qijJNuISsMFx
FsI4sG+4b/j62QIDAQABo2MwYTAJBgNVHRMEAjAAMB8GA1UdIwQYMBaAFFmgpHhW
4VZhTtzpgP/sZrYvBG2qMB0GA1UdDgQWBBTg2ah9Sey/3x2IRZvX5b5akMaYWTAU
BgNVHREEDTALgglsb2NhbGhvc3QwDQYJKoZIhvcNAQEFBQADggEBAHMCtc66jSw0
GwQdQAAfcQGqtS/bszE1oHTyyiTl3xjyhaO+zGJNZ7X/204zOEtYaTSLzJEipKrP
wf5hRsb3889ltNNHuAe+u9yNrcTJyyNrZBR4Hhalr8oo1Iy17DF2dEGRoFBrZpmN
1aY6TntbAHSFIudvgti6Qg9xRDxIJ6nVr4bnTqMRg5ISpdpG0ZvDqHD3GMsakVVs
BLtLfLNJiXE5zeD0QVi722aXSsIvymW25dLcAJ9+NWjvCEDI8ahF815Lk53ughk6
J6ihMpWJDKkA7q6pAmnzCx9COu1nZPSI/gN+k5Dzo9JFc3eNKkJludenKZrf2iPJ
KsT5j6RmE3I=
-----END CERTIFICATE-----
