Certificate:
    Data:
        Version: 3 (0x2)
        Serial Number: 9641679516320066979 (0x85ce206fb06aeda3)
    Signature Algorithm: sha1WithRSAEncryption
        Issuer: C=US, ST=CA, O=Apache, OU=Apache Pulsar, CN=localhost
        Validity
            Not Before: Jun 17 05:22:37 2021 GMT
            Not After : Jun 15 05:22:37 2031 GMT
        Subject: C=US, ST=CA, O=Apache, OU=Apache Pulsar, CN=localhost
        Subject Public Key Info:
            Public Key Algorithm: rsaEncryption
                Public-Key: (2048 bit)
                Modulus:
                    00:c4:96:12:63:5e:68:89:73:bb:f7:d8:06:31:47:
                    38:f5:3e:c9:12:14:d8:21:13:66:39:97:c5:86:f3:
                    50:be:f2:e9:10:1e:f0:07:d4:28:3b:2c:a0:99:fa:
                    34:41:28:27:66:de:55:3f:3b:14:5b:6f:f5:82:40:
                    ca:48:17:7d:d6:31:37:52:be:5e:75:4c:4d:bc:4c:
                    d1:2e:3b:85:76:72:df:80:80:55:b9:17:b5:65:97:
                    ce:a6:fd:05:e0:e1:28:6a:75:e2:3c:a3:a0:a6:66:
                    f1:e6:9c:a1:22:48:0c:9c:31:06:6a:61:50:ae:b0:
                    e6:b4:68:4e:aa:f1:a9:eb:b3:83:f7:bd:55:76:9d:
                    da:05:f8:d5:8e:2c:2f:e1:0b:c5:22:ce:1d:a1:eb:
                    e9:e0:1a:c6:c6:82:5e:31:f6:58:8e:ee:55:65:9c:
                    8a:00:aa:68:71:9c:1f:b4:e4:15:21:84:65:56:eb:
                    4a:51:3c:03:15:e9:8f:14:a9:43:de:8e:f4:b7:58:
                    0a:22:00:16:79:5d:0d:b1:54:7c:ac:05:ab:a7:1e:
                    45:81:4c:bf:42:60:2e:e7:73:51:16:b4:03:55:87:
                    55:00:22:b7:6c:5f:8e:ab:75:8e:15:4d:2b:cb:45:
                    5f:b4:64:2b:26:fe:03:50:51:bf:7a:c7:af:8f:a2:
                    ad:3d
                Exponent: 65537 (0x10001)
        X509v3 extensions:
            X509v3 Basic Constraints: 
                CA:FALSE
            X509v3 Authority Key Identifier: 
                keyid:A7:A0:68:52:E9:8B:1D:F6:E4:40:DB:33:FE:44:B7:2B:17:E3:26:1A

            X509v3 Subject Key Identifier: 
                92:8B:EB:12:3A:FE:54:E0:AC:AE:CA:DC:09:A3:9F:7E:E8:A1:79:47
            X509v3 Subject Alternative Name: 
                DNS:localhost
    Signature Algorithm: sha1WithRSAEncryption
         34:6c:b6:9f:dd:5d:44:38:ff:46:73:fa:61:0b:ab:ba:92:7b:
         93:0a:35:bb:72:b3:15:4f:54:51:4c:34:f3:a5:5e:ea:32:b0:
         57:5b:b5:7b:16:cd:f9:a0:e3:67:14:a9:44:ab:04:b5:b4:26:
         4f:38:e3:87:92:b6:98:96:17:7a:05:65:af:7c:f9:5d:d9:00:
         29:c9:a7:22:ed:a5:4e:4c:7f:e4:74:c0:a0:5e:09:85:64:a7:
         11:96:67:0e:32:c7:15:d2:28:75:fb:0f:14:76:a5:d4:3e:f4:
         4e:a9:6d:1d:59:0c:43:aa:f7:9d:b9:6b:34:df:12:65:03:f6:
         c0:f3:18:2d:52:6b:f0:6d:45:05:fc:aa:91:b0:a0:f5:12:2b:
         08:c4:bf:bf:ca:51:d8:c4:a6:42:c0:60:f4:97:ba:68:c7:cc:
         29:1b:08:90:cd:b6:2f:49:ff:5b:77:04:07:84:a2:f9:de:be:
         64:4b:0b:2f:a1:0f:bb:53:00:53:f3:aa:bc:b1:f1:e9:96:49:
         34:64:01:e6:5d:4e:ef:f6:62:a9:8f:77:1b:b4:f1:ee:18:16:
         a0:d0:cd:79:58:84:80:46:e6:1f:25:10:9d:6d:7c:21:b3:87:
         33:98:bf:fe:70:87:3c:ab:8d:77:5c:87:86:6c:20:dc:fe:74:
         70:20:1c:cf
-----BEGIN CERTIFICATE-----
MIIDlDCCAnygAwIBAgIJAIXOIG+wau2jMA0GCSqGSIb3DQEBBQUAMFcxCzAJBgNV
BAYTAlVTMQswCQYDVQQIDAJDQTEPMA0GA1UECgwGQXBhY2hlMRYwFAYDVQQLDA1B
cGFjaGUgUHVsc2FyMRIwEAYDVQQDDAlsb2NhbGhvc3QwHhcNMjEwNjE3MDUyMjM3
WhcNMzEwNjE1MDUyMjM3WjBXMQswCQYDVQQGEwJVUzELMAkGA1UECAwCQ0ExDzAN
BgNVBAoMBkFwYWNoZTEWMBQGA1UECwwNQXBhY2hlIFB1bHNhcjESMBAGA1UEAwwJ
bG9jYWxob3N0MIIBIjANBgkqhkiG9w0BAQEFAAOCAQ8AMIIBCgKCAQEAxJYSY15o
iXO799gGMUc49T7JEhTYIRNmOZfFhvNQvvLpEB7wB9QoOyygmfo0QSgnZt5VPzsU
W2/1gkDKSBd91jE3Ur5edUxNvEzRLjuFdnLfgIBVuRe1ZZfOpv0F4OEoanXiPKOg
pmbx5pyhIkgMnDEGamFQrrDmtGhOqvGp67OD971Vdp3aBfjVjiwv4QvFIs4doevp
4BrGxoJeMfZYju5VZZyKAKpocZwftOQVIYRlVutKUTwDFemPFKlD3o70t1gKIgAW
eV0NsVR8rAWrpx5FgUy/QmAu53NRFrQDVYdVACK3bF+Oq3WOFU0ry0VftGQrJv4D
UFG/esevj6KtPQIDAQABo2MwYTAJBgNVHRMEAjAAMB8GA1UdIwQYMBaAFKegaFLp
ix325EDbM/5EtysX4yYaMB0GA1UdDgQWBBSSi+sSOv5U4KyuytwJo59+6KF5RzAU
BgNVHREEDTALgglsb2NhbGhvc3QwDQYJKoZIhvcNAQEFBQADggEBADRstp/dXUQ4
/0Zz+mELq7qSe5MKNbtysxVPVFFMNPOlXuoysFdbtXsWzfmg42cUqUSrBLW0Jk84
44eStpiWF3oFZa98+V3ZACnJpyLtpU5Mf+R0wKBeCYVkpxGWZw4yxxXSKHX7DxR2
pdQ+9E6pbR1ZDEOq9525azTfEmUD9sDzGC1Sa/BtRQX8qpGwoPUSKwjEv7/KUdjE
pkLAYPSXumjHzCkbCJDNti9J/1t3BAeEovnevmRLCy+hD7tTAFPzqryx8emWSTRk
AeZdTu/2YqmPdxu08e4YFqDQzXlYhIBG5h8lEJ1tfCGzhzOYv/5whzyrjXdch4Zs
INz+dHAgHM8=
-----END CERTIFICATE-----
