Certificate:
    Data:
        Version: 3 (0x2)
        Serial Number: 11302484053501346330 (0x9cda7d5d1077021a)
    Signature Algorithm: sha1WithRSAEncryption
        Issuer: C=US, ST=CA, O=Apache, OU=Apache Pulsar, CN=localhost
        Validity
            Not Before: Feb 16 19:12:19 2021 GMT
            Not After : Feb 14 19:12:19 2031 GMT
        Subject: C=US, ST=CA, O=Apache, OU=Apache Pulsar, CN=localhost
        Subject Public Key Info:
            Public Key Algorithm: rsaEncryption
                Public-Key: (2048 bit)
                Modulus:
                    00:be:80:9c:b6:0e:88:4b:61:3f:c9:fc:60:45:63:
                    34:e0:1c:49:4a:0c:f0:0a:6a:e6:93:1d:38:db:03:
                    14:68:56:54:41:be:8f:e9:48:3a:21:68:b3:f5:e4:
                    60:e5:a7:90:af:be:37:0d:08:09:3e:bc:d4:9e:8c:
                    7a:ae:ca:44:c6:cc:b5:96:9b:3f:8e:a0:50:da:7d:
                    49:98:23:98:d5:b1:64:e6:f7:42:e0:21:ac:0a:75:
                    58:72:bd:97:1a:72:bd:77:a6:00:38:d9:a3:e0:73:
                    11:5b:a9:f1:c7:b8:5f:96:e9:d6:87:ae:82:37:1a:
                    1d:81:78:74:46:a7:0a:ec:1d:4d:ec:95:b9:13:e0:
                    e3:1f:af:7a:cd:61:2b:d2:af:9e:a4:4c:ca:00:8d:
                    6d:24:39:7f:12:bc:c9:26:7a:68:f3:7b:c7:fa:2e:
                    61:d4:88:30:37:b5:2a:ca:39:8d:10:ca:6b:00:b9:
                    dd:6b:98:1f:84:bb:70:fc:fa:35:43:fe:9a:5d:da:
                    7f:eb:8a:3a:22:0c:bf:70:d6:14:4d:50:89:7e:a7:
                    92:1b:a9:2c:e4:14:a3:7f:e4:c3:aa:83:a1:c2:d8:
                    54:52:07:5b:2b:dd:f4:db:88:0b:37:58:13:a9:2a:
                    00:36:c1:ea:a5:84:90:19:ce:2c:71:47:9d:c2:94:
                    71:8f
                Exponent: 65537 (0x10001)
        X509v3 extensions:
            X509v3 Basic Constraints: 
                CA:FALSE
            X509v3 Authority Key Identifier: 
                keyid:AE:7E:50:17:5D:13:6E:22:E5:C6:97:43:B9:8F:3A:B6:FA:FB:48:D2

            X509v3 Subject Key Identifier: 
                11:32:C6:4D:77:0F:D5:45:6C:73:CF:4C:26:97:30:21:EB:09:BB:1B
    Signature Algorithm: sha1WithRSAEncryption
         22:3d:be:97:7a:1e:fc:4a:1e:4f:e6:33:52:18:bc:df:aa:b5:
         50:45:46:03:0c:fb:89:d3:08:ca:a0:f6:87:bd:27:24:96:87:
         43:85:b7:33:ea:d6:e9:77:18:a5:2a:c9:78:bb:9d:da:2e:0d:
         f1:1c:e2:dd:73:39:e3:1d:8d:a6:df:d5:29:06:28:72:de:75:
         d5:06:0a:4c:42:83:83:a1:6c:ad:3d:37:47:d1:c8:5f:8b:2f:
         1c:f4:0a:44:25:c1:e8:51:0a:1f:ab:29:bc:29:4d:5d:a4:5f:
         50:30:cd:18:d6:66:c0:3c:d4:1d:41:72:5d:4d:42:36:7d:2b:
         07:71:3b:51:a6:19:0a:24:46:5b:f2:4c:97:0d:ff:56:a1:4e:
         49:0c:53:c3:9d:6e:97:9e:09:de:16:20:e9:ef:b5:2a:66:f5:
         ad:a5:38:c8:ed:4d:63:19:cd:2d:34:c5:57:ee:13:e4:ac:b8:
         4b:a0:f7:05:ab:75:5e:d9:40:af:cf:0d:a9:55:a2:c9:74:6a:
         f1:44:a0:41:0b:80:30:ed:32:bf:e1:ae:81:0f:5e:78:c7:01:
         cd:b0:05:c5:f0:d3:eb:fa:7a:12:5b:13:92:4d:1d:09:3c:d3:
         be:70:5e:d3:17:a3:70:1b:b3:f2:88:1a:55:cd:a1:a8:2f:4c:
         77:c2:f0:d1
-----BEGIN CERTIFICATE-----
MIIDfjCCAmagAwIBAgIJAJzafV0QdwIaMA0GCSqGSIb3DQEBBQUAMFcxCzAJBgNV
BAYTAlVTMQswCQYDVQQIDAJDQTEPMA0GA1UECgwGQXBhY2hlMRYwFAYDVQQLDA1B
cGFjaGUgUHVsc2FyMRIwEAYDVQQDDAlsb2NhbGhvc3QwHhcNMjEwMjE2MTkxMjE5
WhcNMzEwMjE0MTkxMjE5WjBXMQswCQYDVQQGEwJVUzELMAkGA1UECAwCQ0ExDzAN
BgNVBAoMBkFwYWNoZTEWMBQGA1UECwwNQXBhY2hlIFB1bHNhcjESMBAGA1UEAwwJ
bG9jYWxob3N0MIIBIjANBgkqhkiG9w0BAQEFAAOCAQ8AMIIBCgKCAQEAvoCctg6I
S2E/yfxgRWM04BxJSgzwCmrmkx042wMUaFZUQb6P6Ug6IWiz9eRg5aeQr743DQgJ
PrzUnox6rspExsy1lps/jqBQ2n1JmCOY1bFk5vdC4CGsCnVYcr2XGnK9d6YAONmj
4HMRW6nxx7hflunWh66CNxodgXh0RqcK7B1N7JW5E+DjH696zWEr0q+epEzKAI1t
JDl/ErzJJnpo83vH+i5h1IgwN7UqyjmNEMprALnda5gfhLtw/Po1Q/6aXdp/64o6
Igy/cNYUTVCJfqeSG6ks5BSjf+TDqoOhwthUUgdbK93024gLN1gTqSoANsHqpYSQ
Gc4scUedwpRxjwIDAQABo00wSzAJBgNVHRMEAjAAMB8GA1UdIwQYMBaAFK5+UBdd
E24i5caXQ7mPOrb6+0jSMB0GA1UdDgQWBBQRMsZNdw/VRWxzz0wmlzAh6wm7GzAN
BgkqhkiG9w0BAQUFAAOCAQEAIj2+l3oe/EoeT+YzUhi836q1UEVGAwz7idMIyqD2
h70nJJaHQ4W3M+rW6XcYpSrJeLud2i4N8Rzi3XM54x2Npt/VKQYoct511QYKTEKD
g6FsrT03R9HIX4svHPQKRCXB6FEKH6spvClNXaRfUDDNGNZmwDzUHUFyXU1CNn0r
B3E7UaYZCiRGW/JMlw3/VqFOSQxTw51ul54J3hYg6e+1Kmb1raU4yO1NYxnNLTTF
V+4T5Ky4S6D3Bat1XtlAr88NqVWiyXRq8USgQQuAMO0yv+GugQ9eeMcBzbAFxfDT
6/p6ElsTkk0dCTzTvnBe0xejcBuz8ogaVc2hqC9Md8Lw0Q==
-----END CERTIFICATE-----
